target datalayout = "e-m:e-p270:32:32-p271:32:32-p272:64:64-i64:64-i128:128-f80:128-n8:16:32:64-S128"
target triple = "x86_64-pc-linux-gnu"

%"class.OopStorage::AllocationListEntry" = type { ptr, ptr }
%"class.OopStorage::AllocationList" = type { ptr, ptr }
%"class.OopStorage::Block" = type { [64 x ptr], i64, i64, ptr, i64, %"class.OopStorage::AllocationListEntry", ptr, i64 }
%"class.OopStorage::ActiveArray" = type <{ i64, i64, i32, [4 x i8] }>
%class.OopStorage = type <{ ptr, ptr, %"class.OopStorage::AllocationList", ptr, ptr, ptr, ptr, i64, %class.SingleWriterSynchronizer, i32, i8, i8, [2 x i8] }>
%class.SingleWriterSynchronizer = type { i32, [2 x i32], i32, %class.Semaphore }
%class.Semaphore = type { %class.PosixSemaphore }
%class.PosixSemaphore = type { %union.sem_t }
%union.sem_t = type { i64, [24 x i8] }
%class.MutexLocker = type { %class.MutexLockerImpl }
%class.MutexLockerImpl = type { ptr }

; Function Attrs: mustprogress nounwind uwtable
define linkonce_odr hidden noundef i64 @_Z10align_downImmTnNSt9enable_ifIXcvbsr3std11is_integralIT_EE5valueEiE4typeELi0EES1_S1_T0_(i64 noundef %0, i64 noundef %1) #1 comdat {
  %3 = alloca i64, align 8
  %4 = alloca i64, align 8
  %5 = alloca i64, align 8
  store i64 %0, ptr %3, align 8
  store i64 %1, ptr %4, align 8
  %6 = load i64, ptr %3, align 8
  %7 = load i64, ptr %4, align 8
  %8 = call noundef i64 @_ZL14alignment_maskImTnNSt9enable_ifIXcvbsr3std11is_integralIT_EE5valueEiE4typeELi0EES1_S1_(i64 noundef %7)
  %9 = xor i64 %8, -1
  %10 = and i64 %6, %9
  store i64 %10, ptr %5, align 8
  %11 = load i64, ptr %5, align 8
  ret i64 %11
}

; Function Attrs: mustprogress nounwind uwtable
define linkonce_odr hidden noundef i64 @_Z12checked_castImmET_T0_(i64 noundef %0) #1 comdat {
  %2 = alloca i64, align 8
  %3 = alloca i64, align 8
  store i64 %0, ptr %2, align 8
  %4 = load i64, ptr %2, align 8
  store i64 %4, ptr %3, align 8
  %5 = load i64, ptr %3, align 8
  ret i64 %5
}

; Function Attrs: mustprogress nounwind uwtable
define internal noundef i64 @_ZL14alignment_maskImTnNSt9enable_ifIXcvbsr3std11is_integralIT_EE5valueEiE4typeELi0EES1_S1_(i64 noundef %0) #1 {
  %2 = alloca i64, align 8
  store i64 %0, ptr %2, align 8
  %3 = load i64, ptr %2, align 8
  %4 = sub i64 %3, 1
  ret i64 %4
}

; Function Attrs: mustprogress nounwind uwtable
define linkonce_odr hidden noundef i64 @_Z8align_upImmTnNSt9enable_ifIXcvbsr3std11is_integralIT_EE5valueEiE4typeELi0EES1_S1_T0_(i64 noundef %0, i64 noundef %1) #1 comdat {
  %3 = alloca i64, align 8
  %4 = alloca i64, align 8
  %5 = alloca i64, align 8
  store i64 %0, ptr %3, align 8
  store i64 %1, ptr %4, align 8
  %6 = load i64, ptr %3, align 8
  %7 = load i64, ptr %4, align 8
  %8 = call noundef i64 @_ZL14alignment_maskImTnNSt9enable_ifIXcvbsr3std11is_integralIT_EE5valueEiE4typeELi0EES1_S1_(i64 noundef %7)
  %9 = add i64 %6, %8
  %10 = call noundef i64 @_Z12checked_castImmET_T0_(i64 noundef %9)
  store i64 %10, ptr %5, align 8
  %11 = load i64, ptr %5, align 8
  %12 = load i64, ptr %4, align 8
  %13 = call noundef i64 @_Z10align_downImmTnNSt9enable_ifIXcvbsr3std11is_integralIT_EE5valueEiE4typeELi0EES1_S1_T0_(i64 noundef %11, i64 noundef %12)
  ret i64 %13
}

; Function Attrs: mustprogress nounwind uwtable
define internal noundef i32 @_ZL14alignment_maskIjTnNSt9enable_ifIXcvbsr3std11is_integralIT_EE5valueEiE4typeELi0EES1_S1_(i32 noundef %0) #1 {
  %2 = alloca i32, align 4
  store i32 %0, ptr %2, align 4
  %3 = load i32, ptr %2, align 4
  %4 = sub i32 %3, 1
  ret i32 %4
}

; Function Attrs: mustprogress nounwind uwtable
define linkonce_odr hidden noundef i64 @_ZN10OopStorage11ActiveArray13blocks_offsetEv() #1 comdat align 2 {
  %1 = call noundef i64 @_Z8align_upImmTnNSt9enable_ifIXcvbsr3std11is_integralIT_EE5valueEiE4typeELi0EES1_S1_T0_(i64 noundef 24, i64 noundef 8)
  ret i64 %1
}

; Function Attrs: mustprogress nounwind uwtable
define linkonce_odr hidden noundef i64 @_Z10align_downImjTnNSt9enable_ifIXcvbsr3std11is_integralIT_EE5valueEiE4typeELi0EES1_S1_T0_(i64 noundef %0, i32 noundef %1) #1 comdat {
  %3 = alloca i64, align 8
  %4 = alloca i32, align 4
  %5 = alloca i64, align 8
  store i64 %0, ptr %3, align 8
  store i32 %1, ptr %4, align 4
  %6 = load i64, ptr %3, align 8
  %7 = load i32, ptr %4, align 4
  %8 = call noundef i32 @_ZL14alignment_maskIjTnNSt9enable_ifIXcvbsr3std11is_integralIT_EE5valueEiE4typeELi0EES1_S1_(i32 noundef %7)
  %9 = zext i32 %8 to i64
  %10 = xor i64 %9, -1
  %11 = and i64 %6, %10
  store i64 %11, ptr %5, align 8
  %12 = load i64, ptr %5, align 8
  ret i64 %12
}

; Function Attrs: mustprogress nounwind uwtable
define linkonce_odr hidden void @_ZNK10OopStorage5Block11check_indexEj(ptr noundef nonnull align 8 dereferenceable(576) %0, i32 noundef %1) #1 comdat align 2 {
  %3 = alloca ptr, align 8
  %4 = alloca i32, align 4
  store ptr %0, ptr %3, align 8
  store i32 %1, ptr %4, align 4
  ret void
}

; Function Attrs: mustprogress nounwind uwtable
define linkonce_odr hidden noundef ptr @_ZNK10OopStorage11ActiveArray8base_ptrEv(ptr noundef nonnull align 8 dereferenceable(20) %0) #1 comdat align 2 {
  %2 = alloca ptr, align 8
  %3 = alloca ptr, align 8
  store ptr %0, ptr %2, align 8
  %4 = load ptr, ptr %2, align 8
  %5 = call noundef i64 @_ZN10OopStorage11ActiveArray13blocks_offsetEv()
  %6 = getelementptr inbounds i8, ptr %4, i64 %5
  store ptr %6, ptr %3, align 8
  %7 = load ptr, ptr %3, align 8
  ret ptr %7
}

; Function Attrs: mustprogress nounwind uwtable
define linkonce_odr hidden noundef ptr @_Z10align_downIP7oopDescjEPT_S3_T0_(ptr noundef %0, i32 noundef %1) #1 comdat {
  %3 = alloca ptr, align 8
  %4 = alloca i32, align 4
  store ptr %0, ptr %3, align 8
  store i32 %1, ptr %4, align 4
  %5 = load ptr, ptr %3, align 8
  %6 = ptrtoint ptr %5 to i64
  %7 = load i32, ptr %4, align 4
  %8 = call noundef i64 @_Z10align_downImjTnNSt9enable_ifIXcvbsr3std11is_integralIT_EE5valueEiE4typeELi0EES1_S1_T0_(i64 noundef %6, i32 noundef %7)
  %9 = inttoptr i64 %8 to ptr
  ret ptr %9
}

; Function Attrs: mustprogress nounwind uwtable
define linkonce_odr hidden void @_ZN15MutexLockerImplD2Ev(ptr noundef nonnull align 8 dereferenceable(8) %0) unnamed_addr #1 comdat align 2 {
  %2 = alloca ptr, align 8
  store ptr %0, ptr %2, align 8
  %3 = load ptr, ptr %2, align 8
  %4 = getelementptr inbounds %class.MutexLockerImpl, ptr %3, i32 0, i32 0
  %5 = load ptr, ptr %4, align 8
  %6 = icmp ne ptr %5, null
  br i1 %6, label %7, label %10

7:                                                ; preds = %1
  %8 = getelementptr inbounds %class.MutexLockerImpl, ptr %3, i32 0, i32 0
  %9 = load ptr, ptr %8, align 8
  call void @_ZN5Mutex6unlockEv(ptr noundef nonnull align 8 dereferenceable(104) %9)
  br label %10

10:                                               ; preds = %7, %1
  ret void
}

; Function Attrs: mustprogress nounwind uwtable
define linkonce_odr hidden noundef i64 @_ZNK10OopStorage5Block17bitmask_for_indexEj(ptr noundef nonnull align 8 dereferenceable(576) %0, i32 noundef %1) #1 comdat align 2 {
  %3 = alloca ptr, align 8
  %4 = alloca i32, align 4
  store ptr %0, ptr %3, align 8
  store i32 %1, ptr %4, align 4
  %5 = load ptr, ptr %3, align 8
  %6 = load i32, ptr %4, align 4
  call void @_ZNK10OopStorage5Block11check_indexEj(ptr noundef nonnull align 8 dereferenceable(576) %5, i32 noundef %6)
  %7 = load i32, ptr %4, align 4
  %8 = zext i32 %7 to i64
  %9 = shl i64 1, %8
  ret i64 %9
}

; Function Attrs: mustprogress nounwind uwtable
define hidden noundef i32 @_ZNK10OopStorage5Block9get_indexEPKP7oopDesc(ptr noundef nonnull align 8 dereferenceable(576) %0, ptr noundef %1) #1 align 2 {
  %3 = alloca ptr, align 8
  %4 = alloca ptr, align 8
  store ptr %0, ptr %3, align 8
  store ptr %1, ptr %4, align 8
  %5 = load ptr, ptr %3, align 8
  %6 = load ptr, ptr %4, align 8
  %7 = call noundef ptr @_ZNK10OopStorage5Block11get_pointerEj(ptr noundef nonnull align 8 dereferenceable(576) %5, i32 noundef 0)
  %8 = ptrtoint ptr %6 to i64
  %9 = ptrtoint ptr %7 to i64
  %10 = sub i64 %8, %9
  %11 = sdiv exact i64 %10, 8
  %12 = trunc i64 %11 to i32
  ret i32 %12
}

; Function Attrs: mustprogress nounwind uwtable
define linkonce_odr hidden noundef ptr @_ZNK10OopStorage5Block11get_pointerEj(ptr noundef nonnull align 8 dereferenceable(576) %0, i32 noundef %1) #1 comdat align 2 {
  %3 = alloca ptr, align 8
  %4 = alloca i32, align 4
  store ptr %0, ptr %3, align 8
  store i32 %1, ptr %4, align 4
  %5 = load ptr, ptr %3, align 8
  %6 = load i32, ptr %4, align 4
  call void @_ZNK10OopStorage5Block11check_indexEj(ptr noundef nonnull align 8 dereferenceable(576) %5, i32 noundef %6)
  %7 = getelementptr inbounds %"class.OopStorage::Block", ptr %5, i32 0, i32 0
  %8 = load i32, ptr %4, align 4
  %9 = zext i32 %8 to i64
  %10 = getelementptr inbounds [64 x ptr], ptr %7, i64 0, i64 %9
  ret ptr %10
}

; Function Attrs: mustprogress nounwind uwtable
define linkonce_odr hidden noundef ptr @_ZNK10OopStorage11ActiveArray9block_ptrEm(ptr noundef nonnull align 8 dereferenceable(20) %0, i64 noundef %1) #1 comdat align 2 {
  %3 = alloca ptr, align 8
  %4 = alloca i64, align 8
  store ptr %0, ptr %3, align 8
  store i64 %1, ptr %4, align 8
  %5 = load ptr, ptr %3, align 8
  %6 = call noundef ptr @_ZNK10OopStorage11ActiveArray8base_ptrEv(ptr noundef nonnull align 8 dereferenceable(20) %5)
  %7 = load i64, ptr %4, align 8
  %8 = getelementptr inbounds ptr, ptr %6, i64 %7
  ret ptr %8
}

; Function Attrs: mustprogress nounwind uwtable
define linkonce_odr hidden noundef i64 @_Z10SafeFetchNPll(ptr noundef %0, i64 noundef %1) #1 comdat {
  %3 = alloca ptr, align 8
  %4 = alloca i64, align 8
  store ptr %0, ptr %3, align 8
  store i64 %1, ptr %4, align 8
  %5 = load ptr, ptr %3, align 8
  %6 = load i64, ptr %4, align 8
  %7 = call i64 @SafeFetchN_impl(ptr noundef %5, i64 noundef %6)
  ret i64 %7
}

; Function Attrs: mustprogress nounwind uwtable
define linkonce_odr hidden void @_ZN15MutexLockerImplC2EP5MutexNS0_18SafepointCheckFlagE(ptr noundef nonnull align 8 dereferenceable(8) %0, ptr noundef %1, i32 noundef %2) unnamed_addr #1 comdat align 2 {
  %4 = alloca ptr, align 8
  %5 = alloca ptr, align 8
  %6 = alloca i32, align 4
  %7 = alloca i8, align 1
  store ptr %0, ptr %4, align 8
  store ptr %1, ptr %5, align 8
  store i32 %2, ptr %6, align 4
  %8 = load ptr, ptr %4, align 8
  %9 = getelementptr inbounds %class.MutexLockerImpl, ptr %8, i32 0, i32 0
  %10 = load ptr, ptr %5, align 8
  store ptr %10, ptr %9, align 8
  %11 = load i32, ptr %6, align 4
  %12 = icmp eq i32 %11, 1
  %13 = zext i1 %12 to i8
  store i8 %13, ptr %7, align 1
  %14 = getelementptr inbounds %class.MutexLockerImpl, ptr %8, i32 0, i32 0
  %15 = load ptr, ptr %14, align 8
  %16 = icmp ne ptr %15, null
  br i1 %16, label %17, label %27

17:                                               ; preds = %3
  %18 = load i8, ptr %7, align 1
  %19 = trunc i8 %18 to i1
  br i1 %19, label %20, label %23

20:                                               ; preds = %17
  %21 = getelementptr inbounds %class.MutexLockerImpl, ptr %8, i32 0, i32 0
  %22 = load ptr, ptr %21, align 8
  call void @_ZN5Mutex28lock_without_safepoint_checkEv(ptr noundef nonnull align 8 dereferenceable(104) %22)
  br label %26

23:                                               ; preds = %17
  %24 = getelementptr inbounds %class.MutexLockerImpl, ptr %8, i32 0, i32 0
  %25 = load ptr, ptr %24, align 8
  call void @_ZN5Mutex4lockEv(ptr noundef nonnull align 8 dereferenceable(104) %25)
  br label %26

26:                                               ; preds = %23, %20
  br label %27

27:                                               ; preds = %26, %3
  ret void
}

; Function Attrs: mustprogress nounwind uwtable
define hidden noundef ptr @_ZN10OopStorage5Block13block_for_ptrEPKS_PKP7oopDesc(ptr noundef %0, ptr noundef %1) #1 align 2 {
  %3 = alloca ptr, align 8
  %4 = alloca ptr, align 8
  %5 = alloca ptr, align 8
  %6 = alloca ptr, align 8
  %7 = alloca ptr, align 8
  %8 = alloca i64, align 8
  %9 = alloca i32, align 4
  %10 = alloca ptr, align 8
  store ptr %0, ptr %4, align 8
  store ptr %1, ptr %5, align 8
  %11 = load ptr, ptr %5, align 8
  %12 = call noundef ptr @_Z10align_downIP7oopDescjEPT_S3_T0_(ptr noundef %11, i32 noundef 64)
  store ptr %12, ptr %6, align 8
  %13 = load ptr, ptr %6, align 8
  %14 = getelementptr inbounds ptr, ptr %13, i64 -56
  store ptr %14, ptr %7, align 8
  %15 = load ptr, ptr %4, align 8
  %16 = ptrtoint ptr %15 to i64
  store i64 %16, ptr %8, align 8
  store i32 0, ptr %9, align 4
  br label %17

17:                                               ; preds = %30, %2
  %18 = load i32, ptr %9, align 4
  %19 = icmp ult i32 %18, 8
  br i1 %19, label %20, label %35

20:                                               ; preds = %17
  %21 = load ptr, ptr %7, align 8
  store ptr %21, ptr %10, align 8
  %22 = load ptr, ptr %10, align 8
  %23 = getelementptr inbounds %"class.OopStorage::Block", ptr %22, i32 0, i32 2
  %24 = call noundef i64 @_Z10SafeFetchNPll(ptr noundef %23, i64 noundef 0)
  %25 = load i64, ptr %8, align 8
  %26 = icmp eq i64 %24, %25
  br i1 %26, label %27, label %29

27:                                               ; preds = %20
  %28 = load ptr, ptr %10, align 8
  store ptr %28, ptr %3, align 8
  br label %36

29:                                               ; preds = %20
  br label %30

30:                                               ; preds = %29
  %31 = load i32, ptr %9, align 4
  %32 = add i32 %31, 1
  store i32 %32, ptr %9, align 4
  %33 = load ptr, ptr %7, align 8
  %34 = getelementptr inbounds ptr, ptr %33, i64 8
  store ptr %34, ptr %7, align 8
  br label %17, !llvm.loop !8

35:                                               ; preds = %17
  store ptr null, ptr %3, align 8
  br label %36

36:                                               ; preds = %35, %27
  %37 = load ptr, ptr %3, align 8
  ret ptr %37
}

; Function Attrs: mustprogress nounwind uwtable
define linkonce_odr hidden void @_ZN11MutexLockerD2Ev(ptr noundef nonnull align 8 dereferenceable(8) %0) unnamed_addr #1 comdat align 2 {
  %2 = alloca ptr, align 8
  store ptr %0, ptr %2, align 8
  %3 = load ptr, ptr %2, align 8
  call void @_ZN15MutexLockerImplD2Ev(ptr noundef nonnull align 8 dereferenceable(8) %3) #11
  ret void
}

; Function Attrs: mustprogress nounwind uwtable
define hidden noundef i64 @_ZNK10OopStorage5Block17bitmask_for_entryEPKP7oopDesc(ptr noundef nonnull align 8 dereferenceable(576) %0, ptr noundef %1) #1 align 2 {
  %3 = alloca ptr, align 8
  %4 = alloca ptr, align 8
  store ptr %0, ptr %3, align 8
  store ptr %1, ptr %4, align 8
  %5 = load ptr, ptr %3, align 8
  %6 = load ptr, ptr %4, align 8
  %7 = call noundef i32 @_ZNK10OopStorage5Block9get_indexEPKP7oopDesc(ptr noundef nonnull align 8 dereferenceable(576) %5, ptr noundef %6)
  %8 = call noundef i64 @_ZNK10OopStorage5Block17bitmask_for_indexEj(ptr noundef nonnull align 8 dereferenceable(576) %5, i32 noundef %7)
  ret i64 %8
}

; Function Attrs: mustprogress nounwind uwtable
define linkonce_odr hidden noundef i64 @_ZNK10OopStorage5Block17allocated_bitmaskEv(ptr noundef nonnull align 8 dereferenceable(576) %0) #1 comdat align 2 {
  %2 = alloca ptr, align 8
  store ptr %0, ptr %2, align 8
  %3 = load ptr, ptr %2, align 8
  %4 = getelementptr inbounds %"class.OopStorage::Block", ptr %3, i32 0, i32 1
  %5 = load volatile i64, ptr %4, align 8
  ret i64 %5
}

; Function Attrs: mustprogress nounwind uwtable
define hidden noundef zeroext i1 @_ZNK10OopStorage5Block8containsEPKP7oopDesc(ptr noundef nonnull align 8 dereferenceable(576) %0, ptr noundef %1) #1 align 2 {
  %3 = alloca ptr, align 8
  %4 = alloca ptr, align 8
  %5 = alloca ptr, align 8
  store ptr %0, ptr %3, align 8
  store ptr %1, ptr %4, align 8
  %6 = load ptr, ptr %3, align 8
  %7 = call noundef ptr @_ZNK10OopStorage5Block11get_pointerEj(ptr noundef nonnull align 8 dereferenceable(576) %6, i32 noundef 0)
  store ptr %7, ptr %5, align 8
  %8 = load ptr, ptr %5, align 8
  %9 = load ptr, ptr %4, align 8
  %10 = icmp ule ptr %8, %9
  br i1 %10, label %11, label %16

11:                                               ; preds = %2
  %12 = load ptr, ptr %4, align 8
  %13 = load ptr, ptr %5, align 8
  %14 = getelementptr inbounds ptr, ptr %13, i64 64
  %15 = icmp ult ptr %12, %14
  br label %16

16:                                               ; preds = %11, %2
  %17 = phi i1 [ false, %2 ], [ %15, %11 ]
  ret i1 %17
}

; Function Attrs: mustprogress nounwind uwtable
define linkonce_odr hidden noundef ptr @_ZNK10OopStorage11ActiveArray2atEm(ptr noundef nonnull align 8 dereferenceable(20) %0, i64 noundef %1) #1 comdat align 2 {
  %3 = alloca ptr, align 8
  %4 = alloca i64, align 8
  store ptr %0, ptr %3, align 8
  store i64 %1, ptr %4, align 8
  %5 = load ptr, ptr %3, align 8
  %6 = load i64, ptr %4, align 8
  %7 = call noundef ptr @_ZNK10OopStorage11ActiveArray9block_ptrEm(ptr noundef nonnull align 8 dereferenceable(20) %5, i64 noundef %6)
  %8 = load ptr, ptr %7, align 8
  ret ptr %8
}

; Function Attrs: mustprogress nounwind uwtable
define hidden noundef i64 @_ZNK10OopStorage11ActiveArray11block_countEv(ptr noundef nonnull align 8 dereferenceable(20) %0) #1 align 2 {
  %2 = alloca ptr, align 8
  store ptr %0, ptr %2, align 8
  %3 = load ptr, ptr %2, align 8
  %4 = getelementptr inbounds %"class.OopStorage::ActiveArray", ptr %3, i32 0, i32 1
  %5 = load volatile i64, ptr %4, align 8
  ret i64 %5
}

; Function Attrs: mustprogress nounwind uwtable
define hidden noundef i64 @_ZN10OopStorage5Block17active_index_safeEPKS0_(ptr noundef %0) #1 align 2 {
  %2 = alloca ptr, align 8
  store ptr %0, ptr %2, align 8
  %3 = load ptr, ptr %2, align 8
  %4 = getelementptr inbounds %"class.OopStorage::Block", ptr %3, i32 0, i32 4
  %5 = call noundef i64 @_Z10SafeFetchNPll(ptr noundef %4, i64 noundef 0)
  ret i64 %5
}

; Function Attrs: mustprogress nounwind uwtable
define linkonce_odr hidden void @_ZN11MutexLockerC2EP5MutexNS0_18SafepointCheckFlagE(ptr noundef nonnull align 8 dereferenceable(8) %0, ptr noundef %1, i32 noundef %2) unnamed_addr #1 comdat align 2 {
  %4 = alloca ptr, align 8
  %5 = alloca ptr, align 8
  %6 = alloca i32, align 4
  store ptr %0, ptr %4, align 8
  store ptr %1, ptr %5, align 8
  store i32 %2, ptr %6, align 4
  %7 = load ptr, ptr %4, align 8
  %8 = load ptr, ptr %5, align 8
  %9 = load i32, ptr %6, align 4
  call void @_ZN15MutexLockerImplC2EP5MutexNS0_18SafepointCheckFlagE(ptr noundef nonnull align 8 dereferenceable(8) %7, ptr noundef %8, i32 noundef %9)
  ret void
}

; Function Attrs: mustprogress nounwind uwtable
define hidden noundef ptr @_ZNK10OopStorage18find_block_or_nullEPKP7oopDesc(ptr noundef nonnull align 8 dereferenceable(126) %0, ptr noundef %1) #1 align 2 {
  %3 = alloca ptr, align 8
  %4 = alloca ptr, align 8
  store ptr %0, ptr %3, align 8
  store ptr %1, ptr %4, align 8
  %5 = load ptr, ptr %3, align 8
  %6 = load ptr, ptr %4, align 8
  %7 = call noundef ptr @_ZN10OopStorage5Block13block_for_ptrEPKS_PKP7oopDesc(ptr noundef %5, ptr noundef %6)
  ret ptr %7
}

; Function Attrs: mustprogress nounwind uwtable
define hidden noundef i32 @_ZNK10OopStorage17allocation_statusEPKP7oopDesc(ptr noundef nonnull align 8 dereferenceable(126) %0, ptr noundef %1) #1 align 2 {
  %3 = alloca i32, align 4
  %4 = alloca ptr, align 8
  %5 = alloca ptr, align 8
  %6 = alloca ptr, align 8
  %7 = alloca %class.MutexLocker, align 8
  %8 = alloca i64, align 8
  %9 = alloca i32, align 4
  store ptr %0, ptr %4, align 8
  store ptr %1, ptr %5, align 8
  %10 = load ptr, ptr %4, align 8
  %11 = load ptr, ptr %5, align 8
  %12 = call noundef ptr @_ZNK10OopStorage18find_block_or_nullEPKP7oopDesc(ptr noundef nonnull align 8 dereferenceable(126) %10, ptr noundef %11)
  store ptr %12, ptr %6, align 8
  %13 = load ptr, ptr %6, align 8
  %14 = icmp ne ptr %13, null
  br i1 %14, label %15, label %50

15:                                               ; preds = %2
  %16 = getelementptr inbounds %class.OopStorage, ptr %10, i32 0, i32 4
  %17 = load ptr, ptr %16, align 8
  call void @_ZN11MutexLockerC2EP5MutexNS0_18SafepointCheckFlagE(ptr noundef nonnull align 8 dereferenceable(8) %7, ptr noundef %17, i32 noundef 1)
  %18 = load ptr, ptr %6, align 8
  %19 = call noundef i64 @_ZN10OopStorage5Block17active_index_safeEPKS0_(ptr noundef %18)
  store i64 %19, ptr %8, align 8
  %20 = load i64, ptr %8, align 8
  %21 = getelementptr inbounds %class.OopStorage, ptr %10, i32 0, i32 1
  %22 = load ptr, ptr %21, align 8
  %23 = call noundef i64 @_ZNK10OopStorage11ActiveArray11block_countEv(ptr noundef nonnull align 8 dereferenceable(20) %22)
  %24 = icmp ult i64 %20, %23
  br i1 %24, label %25, label %46

25:                                               ; preds = %15
  %26 = load ptr, ptr %6, align 8
  %27 = getelementptr inbounds %class.OopStorage, ptr %10, i32 0, i32 1
  %28 = load ptr, ptr %27, align 8
  %29 = load i64, ptr %8, align 8
  %30 = call noundef ptr @_ZNK10OopStorage11ActiveArray2atEm(ptr noundef nonnull align 8 dereferenceable(20) %28, i64 noundef %29)
  %31 = icmp eq ptr %26, %30
  br i1 %31, label %32, label %46

32:                                               ; preds = %25
  %33 = load ptr, ptr %6, align 8
  %34 = load ptr, ptr %5, align 8
  %35 = call noundef zeroext i1 @_ZNK10OopStorage5Block8containsEPKP7oopDesc(ptr noundef nonnull align 8 dereferenceable(576) %33, ptr noundef %34)
  br i1 %35, label %36, label %46

36:                                               ; preds = %32
  %37 = load ptr, ptr %6, align 8
  %38 = call noundef i64 @_ZNK10OopStorage5Block17allocated_bitmaskEv(ptr noundef nonnull align 8 dereferenceable(576) %37)
  %39 = load ptr, ptr %6, align 8
  %40 = load ptr, ptr %5, align 8
  %41 = call noundef i64 @_ZNK10OopStorage5Block17bitmask_for_entryEPKP7oopDesc(ptr noundef nonnull align 8 dereferenceable(576) %39, ptr noundef %40)
  %42 = and i64 %38, %41
  %43 = icmp ne i64 %42, 0
  br i1 %43, label %44, label %45

44:                                               ; preds = %36
  store i32 2, ptr %3, align 4
  store i32 1, ptr %9, align 4
  br label %47

45:                                               ; preds = %36
  store i32 1, ptr %3, align 4
  store i32 1, ptr %9, align 4
  br label %47

46:                                               ; preds = %32, %25, %15
  store i32 0, ptr %9, align 4
  br label %47

47:                                               ; preds = %46, %45, %44
  call void @_ZN11MutexLockerD2Ev(ptr noundef nonnull align 8 dereferenceable(8) %7) #11
  %48 = load i32, ptr %9, align 4
  switch i32 %48, label %53 [
    i32 0, label %49
    i32 1, label %51
  ]

49:                                               ; preds = %47
  br label %50

50:                                               ; preds = %49, %2
  store i32 0, ptr %3, align 4
  br label %51

51:                                               ; preds = %50, %47
  %52 = load i32, ptr %3, align 4
  ret i32 %52

53:                                               ; preds = %47
  unreachable
}