; Function Attrs: mustprogress nounwind uwtable
define hidden noundef i32 @_ZNK10OopStorage17allocation_statusEPKP7oopDesc(ptr noundef nonnull align 8 dereferenceable(126) %0, ptr noundef %1) local_unnamed_addr #5 align 2 {
  %3 = ptrtoint ptr %1 to i64
  %4 = and i64 %3, -64
  %5 = inttoptr i64 %4 to ptr
  %6 = getelementptr inbounds i8, ptr %5, i64 -448
  %7 = ptrtoint ptr %0 to i64
  br label %8

8:                                                ; preds = %12, %2
  %.01013.i.i = phi i32 [ 0, %2 ], [ %13, %12 ]
  %.01112.i.i = phi ptr [ %6, %2 ], [ %14, %12 ]
  %9 = getelementptr inbounds i8, ptr %.01112.i.i, i64 520
  %10 = tail call noundef i64 @SafeFetchN_impl(ptr noundef nonnull %9, i64 noundef 0) #21
  %11 = icmp eq i64 %10, %7
  br i1 %11, label %_ZNK10OopStorage18find_block_or_nullEPKP7oopDesc.exit, label %12

12:                                               ; preds = %8
  %13 = add nuw nsw i32 %.01013.i.i, 1
  %14 = getelementptr inbounds i8, ptr %.01112.i.i, i64 64
  %exitcond.not.i.i = icmp eq i32 %13, 8
  br i1 %exitcond.not.i.i, label %_ZNK10OopStorage18find_block_or_nullEPKP7oopDesc.exit.thread, label %8, !llvm.loop !11

_ZNK10OopStorage18find_block_or_nullEPKP7oopDesc.exit: ; preds = %8
  %15 = getelementptr inbounds i8, ptr %0, i64 40
  %16 = load ptr, ptr %15, align 8
  %.not.i.i = icmp eq ptr %16, null
  br i1 %.not.i.i, label %_ZN11MutexLockerC2EP5MutexNS0_18SafepointCheckFlagE.exit, label %17

17:                                               ; preds = %_ZNK10OopStorage18find_block_or_nullEPKP7oopDesc.exit
  tail call void @_ZN5Mutex28lock_without_safepoint_checkEv(ptr noundef nonnull align 8 dereferenceable(104) %16) #21
  br label %_ZN11MutexLockerC2EP5MutexNS0_18SafepointCheckFlagE.exit

_ZN11MutexLockerC2EP5MutexNS0_18SafepointCheckFlagE.exit: ; preds = %_ZNK10OopStorage18find_block_or_nullEPKP7oopDesc.exit, %17
  %18 = getelementptr inbounds i8, ptr %.01112.i.i, i64 536
  %19 = tail call noundef i64 @SafeFetchN_impl(ptr noundef nonnull %18, i64 noundef 0) #21
  %20 = getelementptr inbounds i8, ptr %0, i64 8
  %21 = load ptr, ptr %20, align 8
  %22 = getelementptr inbounds i8, ptr %21, i64 8
  %23 = load volatile i64, ptr %22, align 8
  %24 = icmp ult i64 %19, %23
  br i1 %24, label %25, label %43

25:                                               ; preds = %_ZN11MutexLockerC2EP5MutexNS0_18SafepointCheckFlagE.exit
  %26 = getelementptr inbounds i8, ptr %21, i64 24
  %27 = getelementptr inbounds ptr, ptr %26, i64 %19
  %28 = load ptr, ptr %27, align 8
  %29 = icmp eq ptr %.01112.i.i, %28
  br i1 %29, label %30, label %43

30:                                               ; preds = %25
  %31 = icmp ule ptr %.01112.i.i, %1
  %32 = getelementptr inbounds i8, ptr %.01112.i.i, i64 512
  %33 = icmp ugt ptr %32, %1
  %34 = select i1 %31, i1 %33, i1 false
  br i1 %34, label %35, label %43

35:                                               ; preds = %30
  %36 = load volatile i64, ptr %32, align 8
  %37 = ptrtoint ptr %.01112.i.i to i64
  %38 = sub i64 %3, %37
  %39 = lshr exact i64 %38, 3
  %40 = and i64 %39, 4294967295
  %41 = shl nuw i64 1, %40
  %42 = and i64 %36, %41
  %.not16 = icmp eq i64 %42, 0
  %. = select i1 %.not16, i32 1, i32 2
  br label %43

43:                                               ; preds = %_ZN11MutexLockerC2EP5MutexNS0_18SafepointCheckFlagE.exit, %25, %30, %35
  %.013 = phi i32 [ %., %35 ], [ undef, %30 ], [ undef, %25 ], [ undef, %_ZN11MutexLockerC2EP5MutexNS0_18SafepointCheckFlagE.exit ]
  %switch = phi i1 [ false, %35 ], [ true, %30 ], [ true, %25 ], [ true, %_ZN11MutexLockerC2EP5MutexNS0_18SafepointCheckFlagE.exit ]
  br i1 %.not.i.i, label %_ZN11MutexLockerD2Ev.exit, label %44

44:                                               ; preds = %43
  tail call void @_ZN5Mutex6unlockEv(ptr noundef nonnull align 8 dereferenceable(104) %16) #21
  br label %_ZN11MutexLockerD2Ev.exit

_ZN11MutexLockerD2Ev.exit:                        ; preds = %43, %44
  br i1 %switch, label %_ZNK10OopStorage18find_block_or_nullEPKP7oopDesc.exit.thread, label %45

_ZNK10OopStorage18find_block_or_nullEPKP7oopDesc.exit.thread: ; preds = %12, %_ZN11MutexLockerD2Ev.exit
  br label %45

45:                                               ; preds = %_ZN11MutexLockerD2Ev.exit, %_ZNK10OopStorage18find_block_or_nullEPKP7oopDesc.exit.thread
  %.1 = phi i32 [ %.013, %_ZN11MutexLockerD2Ev.exit ], [ 0, %_ZNK10OopStorage18find_block_or_nullEPKP7oopDesc.exit.thread ]
  ret i32 %.1
}